; ModuleID = '10/1.c'
source_filename = "10/1.c"
target datalayout = "e-m:e-p270:32:32-p271:32:32-p272:64:64-i64:64-f80:128-n8:16:32:64-S128"
target triple = "x86_64-pc-linux-gnu"

@.str = private unnamed_addr constant [3 x i8] c"%d\00", align 1
@.str.1 = private unnamed_addr constant [4 x i8] c"%d\0A\00", align 1

; Function Attrs: noinline nounwind uwtable
define dso_local i32 @num(i32 %0, i32* %1) #0 {
  %3 = alloca i32, align 4
  %4 = alloca i32, align 4
  %5 = alloca i32*, align 8
  %6 = alloca i32, align 4
  %7 = alloca i32, align 4
  %8 = alloca i32*, align 8
  store i32 %0, i32* %4, align 4
  store i32* %1, i32** %5, align 8
  store i32 1, i32* %6, align 4
  store i32 0, i32* %7, align 4
  %9 = load i32*, i32** %5, align 8
  %10 = getelementptr inbounds i32, i32* %9, i64 1
  store i32* %10, i32** %8, align 8
  %11 = load i32, i32* %4, align 4
  %12 = icmp eq i32 %11, 2
  br i1 %12, label %13, label %21

13:                                               ; preds = %2
  %14 = load i32*, i32** %5, align 8
  %15 = load i32, i32* %14, align 4
  %16 = load i32*, i32** %8, align 8
  %17 = load i32, i32* %16, align 4
  %18 = icmp sge i32 %15, %17
  br i1 %18, label %19, label %20

19:                                               ; preds = %13
  store i32 2, i32* %3, align 4
  br label %71

20:                                               ; preds = %13
  store i32 1, i32* %3, align 4
  br label %71

21:                                               ; preds = %2
  br label %22

22:                                               ; preds = %65, %21
  %23 = load i32, i32* %6, align 4
  %24 = load i32, i32* %4, align 4
  %25 = icmp sle i32 %23, %24
  br i1 %25, label %26, label %68

26:                                               ; preds = %22
  br label %27

27:                                               ; preds = %40, %26
  %28 = load i32*, i32** %5, align 8
  %29 = load i32, i32* %28, align 4
  %30 = load i32*, i32** %8, align 8
  %31 = load i32, i32* %30, align 4
  %32 = icmp slt i32 %29, %31
  br i1 %32, label %33, label %37

33:                                               ; preds = %27
  %34 = load i32, i32* %6, align 4
  %35 = load i32, i32* %4, align 4
  %36 = icmp sle i32 %34, %35
  br label %37

37:                                               ; preds = %33, %27
  %38 = phi i1 [ false, %27 ], [ %36, %33 ]
  br i1 %38, label %39, label %45

39:                                               ; preds = %37
  br label %40

40:                                               ; preds = %39
  %41 = load i32, i32* %6, align 4
  %42 = add nsw i32 %41, 1
  store i32 %42, i32* %6, align 4
  %43 = load i32*, i32** %8, align 8
  %44 = getelementptr inbounds i32, i32* %43, i32 1
  store i32* %44, i32** %8, align 8
  br label %27

45:                                               ; preds = %37
  %46 = load i32, i32* %6, align 4
  %47 = add nsw i32 %46, 1
  store i32 %47, i32* %6, align 4
  %48 = load i32, i32* %4, align 4
  %49 = load i32, i32* %6, align 4
  %50 = sub nsw i32 %48, %49
  %51 = add nsw i32 %50, 1
  %52 = load i32*, i32** %8, align 8
  %53 = call i32 @num(i32 %51, i32* %52)
  %54 = add nsw i32 %53, 1
  %55 = load i32, i32* %7, align 4
  %56 = icmp sgt i32 %54, %55
  br i1 %56, label %57, label %65

57:                                               ; preds = %45
  %58 = load i32, i32* %4, align 4
  %59 = load i32, i32* %6, align 4
  %60 = sub nsw i32 %58, %59
  %61 = add nsw i32 %60, 1
  %62 = load i32*, i32** %8, align 8
  %63 = call i32 @num(i32 %61, i32* %62)
  %64 = add nsw i32 %63, 1
  store i32 %64, i32* %7, align 4
  br label %65

65:                                               ; preds = %57, %45
  %66 = load i32*, i32** %8, align 8
  %67 = getelementptr inbounds i32, i32* %66, i32 1
  store i32* %67, i32** %8, align 8
  br label %22

68:                                               ; preds = %22
  br label %69

69:                                               ; preds = %68
  %70 = load i32, i32* %7, align 4
  store i32 %70, i32* %3, align 4
  br label %71

71:                                               ; preds = %69, %20, %19
  %72 = load i32, i32* %3, align 4
  ret i32 %72
}

; Function Attrs: noinline nounwind uwtable
define dso_local i32 @main() #0 {
  %1 = alloca i32, align 4
  %2 = alloca i32, align 4
  %3 = alloca i32, align 4
  %4 = alloca [25 x i32], align 16
  %5 = alloca i32, align 4
  store i32 0, i32* %1, align 4
  store i32 0, i32* %5, align 4
  %6 = call i32 (i8*, ...) @__isoc99_scanf(i8* getelementptr inbounds ([3 x i8], [3 x i8]* @.str, i64 0, i64 0), i32* %2)
  store i32 0, i32* %3, align 4
  br label %7

7:                                                ; preds = %16, %0
  %8 = load i32, i32* %3, align 4
  %9 = load i32, i32* %2, align 4
  %10 = icmp slt i32 %8, %9
  br i1 %10, label %11, label %19

11:                                               ; preds = %7
  %12 = load i32, i32* %3, align 4
  %13 = sext i32 %12 to i64
  %14 = getelementptr inbounds [25 x i32], [25 x i32]* %4, i64 0, i64 %13
  %15 = call i32 (i8*, ...) @__isoc99_scanf(i8* getelementptr inbounds ([3 x i8], [3 x i8]* @.str, i64 0, i64 0), i32* %14)
  br label %16

16:                                               ; preds = %11
  %17 = load i32, i32* %3, align 4
  %18 = add nsw i32 %17, 1
  store i32 %18, i32* %3, align 4
  br label %7

19:                                               ; preds = %7
  %20 = load i32, i32* %2, align 4
  store i32 %20, i32* %3, align 4
  br label %21

21:                                               ; preds = %49, %19
  %22 = load i32, i32* %3, align 4
  %23 = icmp sge i32 %22, 2
  br i1 %23, label %24, label %52

24:                                               ; preds = %21
  %25 = load i32, i32* %3, align 4
  %26 = getelementptr inbounds [25 x i32], [25 x i32]* %4, i64 0, i64 0
  %27 = load i32, i32* %2, align 4
  %28 = sext i32 %27 to i64
  %29 = getelementptr inbounds i32, i32* %26, i64 %28
  %30 = load i32, i32* %3, align 4
  %31 = sext i32 %30 to i64
  %32 = sub i64 0, %31
  %33 = getelementptr inbounds i32, i32* %29, i64 %32
  %34 = call i32 @num(i32 %25, i32* %33)
  %35 = load i32, i32* %5, align 4
  %36 = icmp sgt i32 %34, %35
  br i1 %36, label %37, label %48

37:                                               ; preds = %24
  %38 = load i32, i32* %3, align 4
  %39 = getelementptr inbounds [25 x i32], [25 x i32]* %4, i64 0, i64 0
  %40 = load i32, i32* %2, align 4
  %41 = sext i32 %40 to i64
  %42 = getelementptr inbounds i32, i32* %39, i64 %41
  %43 = load i32, i32* %3, align 4
  %44 = sext i32 %43 to i64
  %45 = sub i64 0, %44
  %46 = getelementptr inbounds i32, i32* %42, i64 %45
  %47 = call i32 @num(i32 %38, i32* %46)
  store i32 %47, i32* %5, align 4
  br label %48

48:                                               ; preds = %37, %24
  br label %49

49:                                               ; preds = %48
  %50 = load i32, i32* %3, align 4
  %51 = add nsw i32 %50, -1
  store i32 %51, i32* %3, align 4
  br label %21

52:                                               ; preds = %21
  %53 = load i32, i32* %5, align 4
  %54 = call i32 (i8*, ...) @printf(i8* getelementptr inbounds ([4 x i8], [4 x i8]* @.str.1, i64 0, i64 0), i32 %53)
  ret i32 0
}

declare dso_local i32 @__isoc99_scanf(i8*, ...) #1

declare dso_local i32 @printf(i8*, ...) #1


!llvm.module.flags = !{!0}
!llvm.ident = !{!1}

!0 = !{i32 1, !"wchar_size", i32 4}
!1 = !{!"clang version 10.0.0-4ubuntu1 "}
